target datalayout = "e-m:e-p270:32:32-p271:32:32-p272:64:64-i64:64-i128:128-f80:128-n8:16:32:64-S128"
target triple = "x86_64-pc-linux-gnu"

%struct.CK_VERSION = type { i8, i8 }
%struct.JNINativeInterface_ = type { ptr, ptr, ptr, ptr, ptr, ptr, ptr, ptr, ptr, ptr, ptr, ptr, ptr, ptr, ptr, ptr, ptr, ptr, ptr, ptr, ptr, ptr, ptr, ptr, ptr, ptr, ptr, ptr, ptr, ptr, ptr, ptr, ptr, ptr, ptr, ptr, ptr, ptr, ptr, ptr, ptr, ptr, ptr, ptr, ptr, ptr, ptr, ptr, ptr, ptr, ptr, ptr, ptr, ptr, ptr, ptr, ptr, ptr, ptr, ptr, ptr, ptr, ptr, ptr, ptr, ptr, ptr, ptr, ptr, ptr, ptr, ptr, ptr, ptr, ptr, ptr, ptr, ptr, ptr, ptr, ptr, ptr, ptr, ptr, ptr, ptr, ptr, ptr, ptr, ptr, ptr, ptr, ptr, ptr, ptr, ptr, ptr, ptr, ptr, ptr, ptr, ptr, ptr, ptr, ptr, ptr, ptr, ptr, ptr, ptr, ptr, ptr, ptr, ptr, ptr, ptr, ptr, ptr, ptr, ptr, ptr, ptr, ptr, ptr, ptr, ptr, ptr, ptr, ptr, ptr, ptr, ptr, ptr, ptr, ptr, ptr, ptr, ptr, ptr, ptr, ptr, ptr, ptr, ptr, ptr, ptr, ptr, ptr, ptr, ptr, ptr, ptr, ptr, ptr, ptr, ptr, ptr, ptr, ptr, ptr, ptr, ptr, ptr, ptr, ptr, ptr, ptr, ptr, ptr, ptr, ptr, ptr, ptr, ptr, ptr, ptr, ptr, ptr, ptr, ptr, ptr, ptr, ptr, ptr, ptr, ptr, ptr, ptr, ptr, ptr, ptr, ptr, ptr, ptr, ptr, ptr, ptr, ptr, ptr, ptr, ptr, ptr, ptr, ptr, ptr, ptr, ptr, ptr, ptr, ptr, ptr, ptr, ptr, ptr, ptr, ptr, ptr, ptr, ptr, ptr, ptr, ptr, ptr, ptr, ptr, ptr, ptr, ptr, ptr, ptr, ptr, ptr, ptr, ptr, ptr }
%struct.CK_MECHANISM = type { i64, ptr, i64 }

@.str.1 = private unnamed_addr constant [41 x i8] c"sun/security/pkcs11/wrapper/CK_MECHANISM\00", align 1
@.str.2 = private unnamed_addr constant [10 x i8] c"mechanism\00", align 1
@.str.3 = private unnamed_addr constant [2 x i8] c"J\00", align 1
@.str.4 = private unnamed_addr constant [11 x i8] c"pParameter\00", align 1
@.str.5 = private unnamed_addr constant [19 x i8] c"Ljava/lang/Object;\00", align 1
@.str.13 = private unnamed_addr constant [9 x i8] c"pVersion\00", align 1
@.str.14 = private unnamed_addr constant [41 x i8] c"Lsun/security/pkcs11/wrapper/CK_VERSION;\00", align 1
@.str.15 = private unnamed_addr constant [39 x i8] c"sun/security/pkcs11/wrapper/CK_VERSION\00", align 1
@.str.16 = private unnamed_addr constant [6 x i8] c"major\00", align 1
@.str.17 = private unnamed_addr constant [2 x i8] c"B\00", align 1
@.str.18 = private unnamed_addr constant [6 x i8] c"minor\00", align 1

; Function Attrs: nounwind uwtable
define internal void @copyBackClientVersion(ptr noundef %0, ptr noundef %1, ptr noundef %2, ptr noundef %3, ptr noundef %4) #0 {
  %6 = alloca ptr, align 8
  %7 = alloca ptr, align 8
  %8 = alloca ptr, align 8
  %9 = alloca ptr, align 8
  %10 = alloca ptr, align 8
  %11 = alloca ptr, align 8
  %12 = alloca ptr, align 8
  %13 = alloca ptr, align 8
  %14 = alloca ptr, align 8
  %15 = alloca ptr, align 8
  %16 = alloca i64, align 8
  %17 = alloca i64, align 8
  %18 = alloca ptr, align 8
  store ptr %0, ptr %6, align 8
  store ptr %1, ptr %7, align 8
  store ptr %2, ptr %8, align 8
  store ptr %3, ptr %9, align 8
  store ptr %4, ptr %10, align 8
  %19 = load ptr, ptr %6, align 8
  %20 = load ptr, ptr %19, align 8
  %21 = getelementptr inbounds %struct.JNINativeInterface_, ptr %20, i32 0, i32 6
  %22 = load ptr, ptr %21, align 8
  %23 = load ptr, ptr %6, align 8
  %24 = call ptr %22(ptr noundef %23, ptr noundef @.str.1)
  store ptr %24, ptr %12, align 8
  %25 = load ptr, ptr %12, align 8
  %26 = icmp eq ptr %25, null
  br i1 %26, label %27, label %28

27:                                               ; preds = %5
  br label %160

28:                                               ; preds = %5
  %29 = load ptr, ptr %6, align 8
  %30 = load ptr, ptr %29, align 8
  %31 = getelementptr inbounds %struct.JNINativeInterface_, ptr %30, i32 0, i32 94
  %32 = load ptr, ptr %31, align 8
  %33 = load ptr, ptr %6, align 8
  %34 = load ptr, ptr %12, align 8
  %35 = call ptr %32(ptr noundef %33, ptr noundef %34, ptr noundef @.str.2, ptr noundef @.str.3)
  store ptr %35, ptr %15, align 8
  %36 = load ptr, ptr %15, align 8
  %37 = icmp eq ptr %36, null
  br i1 %37, label %38, label %39

38:                                               ; preds = %28
  br label %160

39:                                               ; preds = %28
  %40 = load ptr, ptr %6, align 8
  %41 = load ptr, ptr %40, align 8
  %42 = getelementptr inbounds %struct.JNINativeInterface_, ptr %41, i32 0, i32 101
  %43 = load ptr, ptr %42, align 8
  %44 = load ptr, ptr %6, align 8
  %45 = load ptr, ptr %8, align 8
  %46 = load ptr, ptr %15, align 8
  %47 = call i64 %43(ptr noundef %44, ptr noundef %45, ptr noundef %46)
  store i64 %47, ptr %17, align 8
  %48 = load i64, ptr %17, align 8
  store i64 %48, ptr %16, align 8
  %49 = load i64, ptr %16, align 8
  %50 = load ptr, ptr %7, align 8
  %51 = getelementptr inbounds %struct.CK_MECHANISM, ptr %50, i32 0, i32 0
  %52 = load i64, ptr %51, align 8
  %53 = icmp ne i64 %49, %52
  br i1 %53, label %54, label %55

54:                                               ; preds = %39
  br label %160

55:                                               ; preds = %39
  %56 = load ptr, ptr %9, align 8
  %57 = icmp ne ptr %56, null
  br i1 %57, label %58, label %160

58:                                               ; preds = %55
  %59 = load ptr, ptr %6, align 8
  %60 = load ptr, ptr %59, align 8
  %61 = getelementptr inbounds %struct.JNINativeInterface_, ptr %60, i32 0, i32 94
  %62 = load ptr, ptr %61, align 8
  %63 = load ptr, ptr %6, align 8
  %64 = load ptr, ptr %12, align 8
  %65 = call ptr %62(ptr noundef %63, ptr noundef %64, ptr noundef @.str.4, ptr noundef @.str.5)
  store ptr %65, ptr %15, align 8
  %66 = load ptr, ptr %15, align 8
  %67 = icmp eq ptr %66, null
  br i1 %67, label %68, label %69

68:                                               ; preds = %58
  br label %160

69:                                               ; preds = %58
  %70 = load ptr, ptr %6, align 8
  %71 = load ptr, ptr %70, align 8
  %72 = getelementptr inbounds %struct.JNINativeInterface_, ptr %71, i32 0, i32 95
  %73 = load ptr, ptr %72, align 8
  %74 = load ptr, ptr %6, align 8
  %75 = load ptr, ptr %8, align 8
  %76 = load ptr, ptr %15, align 8
  %77 = call ptr %73(ptr noundef %74, ptr noundef %75, ptr noundef %76)
  store ptr %77, ptr %14, align 8
  %78 = load ptr, ptr %6, align 8
  %79 = load ptr, ptr %78, align 8
  %80 = getelementptr inbounds %struct.JNINativeInterface_, ptr %79, i32 0, i32 6
  %81 = load ptr, ptr %80, align 8
  %82 = load ptr, ptr %6, align 8
  %83 = load ptr, ptr %10, align 8
  %84 = call ptr %81(ptr noundef %82, ptr noundef %83)
  store ptr %84, ptr %11, align 8
  %85 = load ptr, ptr %11, align 8
  %86 = icmp eq ptr %85, null
  br i1 %86, label %87, label %88

87:                                               ; preds = %69
  br label %160

88:                                               ; preds = %69
  %89 = load ptr, ptr %6, align 8
  %90 = load ptr, ptr %89, align 8
  %91 = getelementptr inbounds %struct.JNINativeInterface_, ptr %90, i32 0, i32 94
  %92 = load ptr, ptr %91, align 8
  %93 = load ptr, ptr %6, align 8
  %94 = load ptr, ptr %11, align 8
  %95 = call ptr %92(ptr noundef %93, ptr noundef %94, ptr noundef @.str.13, ptr noundef @.str.14)
  store ptr %95, ptr %15, align 8
  %96 = load ptr, ptr %15, align 8
  %97 = icmp eq ptr %96, null
  br i1 %97, label %98, label %99

98:                                               ; preds = %88
  br label %160

99:                                               ; preds = %88
  %100 = load ptr, ptr %6, align 8
  %101 = load ptr, ptr %100, align 8
  %102 = getelementptr inbounds %struct.JNINativeInterface_, ptr %101, i32 0, i32 95
  %103 = load ptr, ptr %102, align 8
  %104 = load ptr, ptr %6, align 8
  %105 = load ptr, ptr %14, align 8
  %106 = load ptr, ptr %15, align 8
  %107 = call ptr %103(ptr noundef %104, ptr noundef %105, ptr noundef %106)
  store ptr %107, ptr %18, align 8
  %108 = load ptr, ptr %6, align 8
  %109 = load ptr, ptr %108, align 8
  %110 = getelementptr inbounds %struct.JNINativeInterface_, ptr %109, i32 0, i32 6
  %111 = load ptr, ptr %110, align 8
  %112 = load ptr, ptr %6, align 8
  %113 = call ptr %111(ptr noundef %112, ptr noundef @.str.15)
  store ptr %113, ptr %13, align 8
  %114 = load ptr, ptr %13, align 8
  %115 = icmp eq ptr %114, null
  br i1 %115, label %116, label %117

116:                                              ; preds = %99
  br label %160

117:                                              ; preds = %99
  %118 = load ptr, ptr %6, align 8
  %119 = load ptr, ptr %118, align 8
  %120 = getelementptr inbounds %struct.JNINativeInterface_, ptr %119, i32 0, i32 94
  %121 = load ptr, ptr %120, align 8
  %122 = load ptr, ptr %6, align 8
  %123 = load ptr, ptr %13, align 8
  %124 = call ptr %121(ptr noundef %122, ptr noundef %123, ptr noundef @.str.16, ptr noundef @.str.17)
  store ptr %124, ptr %15, align 8
  %125 = load ptr, ptr %15, align 8
  %126 = icmp eq ptr %125, null
  br i1 %126, label %127, label %128

127:                                              ; preds = %117
  br label %160

128:                                              ; preds = %117
  %129 = load ptr, ptr %6, align 8
  %130 = load ptr, ptr %129, align 8
  %131 = getelementptr inbounds %struct.JNINativeInterface_, ptr %130, i32 0, i32 106
  %132 = load ptr, ptr %131, align 8
  %133 = load ptr, ptr %6, align 8
  %134 = load ptr, ptr %18, align 8
  %135 = load ptr, ptr %15, align 8
  %136 = load ptr, ptr %9, align 8
  %137 = getelementptr inbounds %struct.CK_VERSION, ptr %136, i32 0, i32 0
  %138 = load i8, ptr %137, align 1
  call void %132(ptr noundef %133, ptr noundef %134, ptr noundef %135, i8 noundef signext %138)
  %139 = load ptr, ptr %6, align 8
  %140 = load ptr, ptr %139, align 8
  %141 = getelementptr inbounds %struct.JNINativeInterface_, ptr %140, i32 0, i32 94
  %142 = load ptr, ptr %141, align 8
  %143 = load ptr, ptr %6, align 8
  %144 = load ptr, ptr %13, align 8
  %145 = call ptr %142(ptr noundef %143, ptr noundef %144, ptr noundef @.str.18, ptr noundef @.str.17)
  store ptr %145, ptr %15, align 8
  %146 = load ptr, ptr %15, align 8
  %147 = icmp eq ptr %146, null
  br i1 %147, label %148, label %149

148:                                              ; preds = %128
  br label %160

149:                                              ; preds = %128
  %150 = load ptr, ptr %6, align 8
  %151 = load ptr, ptr %150, align 8
  %152 = getelementptr inbounds %struct.JNINativeInterface_, ptr %151, i32 0, i32 106
  %153 = load ptr, ptr %152, align 8
  %154 = load ptr, ptr %6, align 8
  %155 = load ptr, ptr %18, align 8
  %156 = load ptr, ptr %15, align 8
  %157 = load ptr, ptr %9, align 8
  %158 = getelementptr inbounds %struct.CK_VERSION, ptr %157, i32 0, i32 1
  %159 = load i8, ptr %158, align 1
  call void %153(ptr noundef %154, ptr noundef %155, ptr noundef %156, i8 noundef signext %159)
  br label %160

160:                                              ; preds = %149, %148, %127, %116, %98, %87, %68, %55, %54, %38, %27
  ret void
}