; Function Attrs: nounwind uwtable
define internal fastcc void @copyBackClientVersion(ptr noundef %0, ptr nocapture noundef readonly %1, ptr noundef %2, ptr noundef readonly %3, ptr noundef %4) unnamed_addr #0 {
  %6 = load ptr, ptr %0, align 8
  %7 = getelementptr inbounds i8, ptr %6, i64 48
  %8 = load ptr, ptr %7, align 8
  %9 = tail call ptr %8(ptr noundef nonnull %0, ptr noundef nonnull @.str.1) #5
  %10 = icmp eq ptr %9, null
  br i1 %10, label %79, label %11

11:                                               ; preds = %5
  %12 = load ptr, ptr %0, align 8
  %13 = getelementptr inbounds i8, ptr %12, i64 752
  %14 = load ptr, ptr %13, align 8
  %15 = tail call ptr %14(ptr noundef nonnull %0, ptr noundef nonnull %9, ptr noundef nonnull @.str.2, ptr noundef nonnull @.str.3) #5
  %16 = icmp eq ptr %15, null
  br i1 %16, label %79, label %17

17:                                               ; preds = %11
  %18 = load ptr, ptr %0, align 8
  %19 = getelementptr inbounds i8, ptr %18, i64 808
  %20 = load ptr, ptr %19, align 8
  %21 = tail call i64 %20(ptr noundef nonnull %0, ptr noundef %2, ptr noundef nonnull %15) #5
  %22 = load i64, ptr %1, align 8
  %23 = icmp eq i64 %21, %22
  %24 = icmp ne ptr %3, null
  %or.cond = and i1 %24, %23
  br i1 %or.cond, label %25, label %79

25:                                               ; preds = %17
  %26 = load ptr, ptr %0, align 8
  %27 = getelementptr inbounds i8, ptr %26, i64 752
  %28 = load ptr, ptr %27, align 8
  %29 = tail call ptr %28(ptr noundef nonnull %0, ptr noundef nonnull %9, ptr noundef nonnull @.str.4, ptr noundef nonnull @.str.5) #5
  %30 = icmp eq ptr %29, null
  br i1 %30, label %79, label %31

31:                                               ; preds = %25
  %32 = load ptr, ptr %0, align 8
  %33 = getelementptr inbounds i8, ptr %32, i64 760
  %34 = load ptr, ptr %33, align 8
  %35 = tail call ptr %34(ptr noundef nonnull %0, ptr noundef %2, ptr noundef nonnull %29) #5
  %36 = load ptr, ptr %0, align 8
  %37 = getelementptr inbounds i8, ptr %36, i64 48
  %38 = load ptr, ptr %37, align 8
  %39 = tail call ptr %38(ptr noundef nonnull %0, ptr noundef %4) #5
  %40 = icmp eq ptr %39, null
  br i1 %40, label %79, label %41

41:                                               ; preds = %31
  %42 = load ptr, ptr %0, align 8
  %43 = getelementptr inbounds i8, ptr %42, i64 752
  %44 = load ptr, ptr %43, align 8
  %45 = tail call ptr %44(ptr noundef nonnull %0, ptr noundef nonnull %39, ptr noundef nonnull @.str.13, ptr noundef nonnull @.str.14) #5
  %46 = icmp eq ptr %45, null
  br i1 %46, label %79, label %47

47:                                               ; preds = %41
  %48 = load ptr, ptr %0, align 8
  %49 = getelementptr inbounds i8, ptr %48, i64 760
  %50 = load ptr, ptr %49, align 8
  %51 = tail call ptr %50(ptr noundef nonnull %0, ptr noundef %35, ptr noundef nonnull %45) #5
  %52 = load ptr, ptr %0, align 8
  %53 = getelementptr inbounds i8, ptr %52, i64 48
  %54 = load ptr, ptr %53, align 8
  %55 = tail call ptr %54(ptr noundef nonnull %0, ptr noundef nonnull @.str.15) #5
  %56 = icmp eq ptr %55, null
  br i1 %56, label %79, label %57

57:                                               ; preds = %47
  %58 = load ptr, ptr %0, align 8
  %59 = getelementptr inbounds i8, ptr %58, i64 752
  %60 = load ptr, ptr %59, align 8
  %61 = tail call ptr %60(ptr noundef nonnull %0, ptr noundef nonnull %55, ptr noundef nonnull @.str.16, ptr noundef nonnull @.str.17) #5
  %62 = icmp eq ptr %61, null
  br i1 %62, label %79, label %63

63:                                               ; preds = %57
  %64 = load ptr, ptr %0, align 8
  %65 = getelementptr inbounds i8, ptr %64, i64 848
  %66 = load ptr, ptr %65, align 8
  %67 = load i8, ptr %3, align 1
  tail call void %66(ptr noundef nonnull %0, ptr noundef %51, ptr noundef nonnull %61, i8 noundef signext %67) #5
  %68 = load ptr, ptr %0, align 8
  %69 = getelementptr inbounds i8, ptr %68, i64 752
  %70 = load ptr, ptr %69, align 8
  %71 = tail call ptr %70(ptr noundef nonnull %0, ptr noundef nonnull %55, ptr noundef nonnull @.str.18, ptr noundef nonnull @.str.17) #5
  %72 = icmp eq ptr %71, null
  br i1 %72, label %79, label %73

73:                                               ; preds = %63
  %74 = load ptr, ptr %0, align 8
  %75 = getelementptr inbounds i8, ptr %74, i64 848
  %76 = load ptr, ptr %75, align 8
  %77 = getelementptr inbounds i8, ptr %3, i64 1
  %78 = load i8, ptr %77, align 1
  tail call void %76(ptr noundef nonnull %0, ptr noundef %51, ptr noundef nonnull %71, i8 noundef signext %78) #5
  br label %79

79:                                               ; preds = %63, %57, %47, %41, %31, %25, %17, %11, %5, %73
  ret void
}